ARM GAS  /tmp/ccyAsDQE.s 			page 1


   1              		.cpu cortex-m3
   2              		.arch armv7-m
   3              		.fpu softvfp
   4              		.eabi_attribute 20, 1
   5              		.eabi_attribute 21, 1
   6              		.eabi_attribute 23, 3
   7              		.eabi_attribute 24, 1
   8              		.eabi_attribute 25, 1
   9              		.eabi_attribute 26, 1
  10              		.eabi_attribute 30, 1
  11              		.eabi_attribute 34, 1
  12              		.eabi_attribute 18, 4
  13              		.file	"main.c"
  14              		.text
  15              	.Ltext0:
  16              		.cfi_sections	.debug_frame
  17              		.section	.text.main,"ax",%progbits
  18              		.align	1
  19              		.global	main
  20              		.syntax unified
  21              		.thumb
  22              		.thumb_func
  24              	main:
  25              	.LFB29:
  26              		.file 1 "Core/Src/main.c"
   1:Core/Src/main.c **** /*
   2:Core/Src/main.c ****  * @Author: lanchanghai
   3:Core/Src/main.c ****  * @Date: 2022-11-18 22:51:00
   4:Core/Src/main.c ****  * @LastEditors: lanchanghai
   5:Core/Src/main.c ****  * @LastEditTime: 2022-11-19 00:14:11
   6:Core/Src/main.c ****  * @FilePath: /STM32F103ZE_Makefile_jicunqi/Core/Src/main.c
   7:Core/Src/main.c ****  */
   8:Core/Src/main.c **** #include "stm32f10x.h"
   9:Core/Src/main.c **** #include "stm32f103_gpio.h"
  10:Core/Src/main.c **** #include "delay.h"
  11:Core/Src/main.c **** //#include "chuankou.h"
  12:Core/Src/main.c **** #include "sys.h"
  13:Core/Src/main.c **** //#include "SPI.h"
  14:Core/Src/main.c **** //#include "tim.h"
  15:Core/Src/main.c **** //#include "oled.h"
  16:Core/Src/main.c **** //#include "zhongduan.h"
  17:Core/Src/main.c **** //#include "key.h"
  18:Core/Src/main.c **** //#include "usart.h"
  19:Core/Src/main.c **** //#include "bmp.h"
  20:Core/Src/main.c **** //#include "math.h"
  21:Core/Src/main.c **** //#include "DAC.h"
  22:Core/Src/main.c **** //#include "esp_01s.h"
  23:Core/Src/main.c **** #include "pwm.h"
  24:Core/Src/main.c **** 
  25:Core/Src/main.c **** /* Private macro -------------------------------------------------------------*/
  26:Core/Src/main.c **** /* USER CODE BEGIN PM */
  27:Core/Src/main.c **** 
  28:Core/Src/main.c **** /* Suppress warning messages */
  29:Core/Src/main.c **** #if defined(__CC_ARM)
  30:Core/Src/main.c **** // Suppress warning message: extended constant initialiser used
  31:Core/Src/main.c **** #pragma diag_suppress 1296
  32:Core/Src/main.c **** #elif defined(__ICCARM__)
ARM GAS  /tmp/ccyAsDQE.s 			page 2


  33:Core/Src/main.c **** #elif defined(__GNUC__)
  34:Core/Src/main.c **** #endif
  35:Core/Src/main.c **** 
  36:Core/Src/main.c **** /* USER CODE END PM */
  37:Core/Src/main.c **** int main(void){
  27              		.loc 1 37 15 view -0
  28              		.cfi_startproc
  29              		@ Volatile: function does not return.
  30              		@ args = 0, pretend = 0, frame = 0
  31              		@ frame_needed = 0, uses_anonymous_args = 0
  32 0000 08B5     		push	{r3, lr}
  33              	.LCFI0:
  34              		.cfi_def_cfa_offset 8
  35              		.cfi_offset 3, -8
  36              		.cfi_offset 14, -4
  38:Core/Src/main.c **** 	
  39:Core/Src/main.c **** 	Stm32_Clock_Init(9);
  37              		.loc 1 39 2 view .LVU1
  38 0002 0920     		movs	r0, #9
  39 0004 FFF7FEFF 		bl	Stm32_Clock_Init
  40              	.LVL0:
  40:Core/Src/main.c **** 	delay_init(72);
  41              		.loc 1 40 2 view .LVU2
  42 0008 4820     		movs	r0, #72
  43 000a FFF7FEFF 		bl	delay_init
  44              	.LVL1:
  41:Core/Src/main.c **** 	RCC->APB2ENR |= 1<<2;
  45              		.loc 1 41 2 view .LVU3
  46              		.loc 1 41 15 is_stmt 0 view .LVU4
  47 000e 0F4A     		ldr	r2, .L4
  48 0010 9369     		ldr	r3, [r2, #24]
  49 0012 43F00403 		orr	r3, r3, #4
  50 0016 9361     		str	r3, [r2, #24]
  42:Core/Src/main.c **** 	GPIOA->CRL&=0Xfffff0ff;
  51              		.loc 1 42 2 is_stmt 1 view .LVU5
  52              		.loc 1 42 12 is_stmt 0 view .LVU6
  53 0018 0D4B     		ldr	r3, .L4+4
  54 001a 1A68     		ldr	r2, [r3]
  55 001c 22F47062 		bic	r2, r2, #3840
  56 0020 1A60     		str	r2, [r3]
  43:Core/Src/main.c **** 	GPIOA->CRL|=0X00000300;
  57              		.loc 1 43 2 is_stmt 1 view .LVU7
  58              		.loc 1 43 12 is_stmt 0 view .LVU8
  59 0022 1A68     		ldr	r2, [r3]
  60 0024 42F44072 		orr	r2, r2, #768
  61 0028 1A60     		str	r2, [r3]
  62              	.L2:
  44:Core/Src/main.c **** 	
  45:Core/Src/main.c **** 	while(1){
  63              		.loc 1 45 2 is_stmt 1 discriminator 1 view .LVU9
  46:Core/Src/main.c **** 		PAout(2)=0;
  64              		.loc 1 46 3 discriminator 1 view .LVU10
  65              		.loc 1 46 11 is_stmt 0 discriminator 1 view .LVU11
  66 002a 0A4C     		ldr	r4, .L4+8
  67 002c 0023     		movs	r3, #0
  68 002e C4F88831 		str	r3, [r4, #392]
  47:Core/Src/main.c **** 		delay_ms(1000);
ARM GAS  /tmp/ccyAsDQE.s 			page 3


  69              		.loc 1 47 3 is_stmt 1 discriminator 1 view .LVU12
  70 0032 4FF47A70 		mov	r0, #1000
  71 0036 FFF7FEFF 		bl	delay_ms
  72              	.LVL2:
  48:Core/Src/main.c **** 		PAout(2)=1;
  73              		.loc 1 48 3 discriminator 1 view .LVU13
  74              		.loc 1 48 11 is_stmt 0 discriminator 1 view .LVU14
  75 003a 0123     		movs	r3, #1
  76 003c C4F88831 		str	r3, [r4, #392]
  49:Core/Src/main.c **** 		delay_ms(1000);
  77              		.loc 1 49 3 is_stmt 1 discriminator 1 view .LVU15
  78 0040 4FF47A70 		mov	r0, #1000
  79 0044 FFF7FEFF 		bl	delay_ms
  80              	.LVL3:
  45:Core/Src/main.c **** 		PAout(2)=0;
  81              		.loc 1 45 7 discriminator 1 view .LVU16
  82 0048 EFE7     		b	.L2
  83              	.L5:
  84 004a 00BF     		.align	2
  85              	.L4:
  86 004c 00100240 		.word	1073876992
  87 0050 00080140 		.word	1073809408
  88 0054 00002142 		.word	1109458944
  89              		.cfi_endproc
  90              	.LFE29:
  92              		.text
  93              	.Letext0:
  94              		.file 2 "/opt/gcc-arm-none-eabi-10.3-2021.10/arm-none-eabi/include/machine/_default_types.h"
  95              		.file 3 "/opt/gcc-arm-none-eabi-10.3-2021.10/arm-none-eabi/include/sys/_stdint.h"
  96              		.file 4 "Core/Inc/stm32f10x.h"
  97              		.file 5 "Drivers/HARDWARE/Inc/sys.h"
  98              		.file 6 "Drivers/HARDWARE/Inc/delay.h"
ARM GAS  /tmp/ccyAsDQE.s 			page 4


DEFINED SYMBOLS
                            *ABS*:0000000000000000 main.c
     /tmp/ccyAsDQE.s:18     .text.main:0000000000000000 $t
     /tmp/ccyAsDQE.s:24     .text.main:0000000000000000 main
     /tmp/ccyAsDQE.s:86     .text.main:000000000000004c $d

UNDEFINED SYMBOLS
Stm32_Clock_Init
delay_init
delay_ms
